; ModuleID = '27/1388.c'
source_filename = "27/1388.c"
target datalayout = "e-m:e-p270:32:32-p271:32:32-p272:64:64-i64:64-f80:128-n8:16:32:64-S128"
target triple = "x86_64-pc-linux-gnu"

@.str = private unnamed_addr constant [3 x i8] c"%d\00", align 1
@.str.1 = private unnamed_addr constant [7 x i8] c"%f%f%f\00", align 1
@.str.2 = private unnamed_addr constant [19 x i8] c"x1=%.5lf;x2=%.5lf\0A\00", align 1
@.str.3 = private unnamed_addr constant [13 x i8] c"x1=x2=%.5lf\0A\00", align 1
@.str.4 = private unnamed_addr constant [33 x i8] c"x1=%.5lf+%.5lfi;x2=%.5lf-%.5lfi\0A\00", align 1

; Function Attrs: noinline nounwind uwtable
define dso_local i32 @main() #0 {
  %1 = alloca i32, align 4
  %2 = alloca i32, align 4
  %3 = alloca i32, align 4
  %4 = alloca [100 x float], align 16
  %5 = alloca [100 x float], align 16
  %6 = alloca [100 x float], align 16
  %7 = alloca double, align 8
  %8 = alloca double, align 8
  %9 = alloca double, align 8
  %10 = alloca double, align 8
  %11 = alloca double, align 8
  store i32 0, i32* %1, align 4
  %12 = call i32 (i8*, ...) @__isoc99_scanf(i8* getelementptr inbounds ([3 x i8], [3 x i8]* @.str, i64 0, i64 0), i32* %2)
  store i32 0, i32* %3, align 4
  br label %13

13:                                               ; preds = %28, %0
  %14 = load i32, i32* %3, align 4
  %15 = load i32, i32* %2, align 4
  %16 = icmp slt i32 %14, %15
  br i1 %16, label %17, label %31

17:                                               ; preds = %13
  %18 = load i32, i32* %3, align 4
  %19 = sext i32 %18 to i64
  %20 = getelementptr inbounds [100 x float], [100 x float]* %4, i64 0, i64 %19
  %21 = load i32, i32* %3, align 4
  %22 = sext i32 %21 to i64
  %23 = getelementptr inbounds [100 x float], [100 x float]* %5, i64 0, i64 %22
  %24 = load i32, i32* %3, align 4
  %25 = sext i32 %24 to i64
  %26 = getelementptr inbounds [100 x float], [100 x float]* %6, i64 0, i64 %25
  %27 = call i32 (i8*, ...) @__isoc99_scanf(i8* getelementptr inbounds ([7 x i8], [7 x i8]* @.str.1, i64 0, i64 0), float* %20, float* %23, float* %26)
  br label %28

28:                                               ; preds = %17
  %29 = load i32, i32* %3, align 4
  %30 = add nsw i32 %29, 1
  store i32 %30, i32* %3, align 4
  br label %13

31:                                               ; preds = %13
  store i32 0, i32* %3, align 4
  br label %32

32:                                               ; preds = %148, %31
  %33 = load i32, i32* %3, align 4
  %34 = load i32, i32* %2, align 4
  %35 = icmp slt i32 %33, %34
  br i1 %35, label %36, label %151

36:                                               ; preds = %32
  %37 = load i32, i32* %3, align 4
  %38 = sext i32 %37 to i64
  %39 = getelementptr inbounds [100 x float], [100 x float]* %5, i64 0, i64 %38
  %40 = load float, float* %39, align 4
  %41 = load i32, i32* %3, align 4
  %42 = sext i32 %41 to i64
  %43 = getelementptr inbounds [100 x float], [100 x float]* %5, i64 0, i64 %42
  %44 = load float, float* %43, align 4
  %45 = fmul float %40, %44
  %46 = load i32, i32* %3, align 4
  %47 = sext i32 %46 to i64
  %48 = getelementptr inbounds [100 x float], [100 x float]* %4, i64 0, i64 %47
  %49 = load float, float* %48, align 4
  %50 = fmul float 4.000000e+00, %49
  %51 = load i32, i32* %3, align 4
  %52 = sext i32 %51 to i64
  %53 = getelementptr inbounds [100 x float], [100 x float]* %6, i64 0, i64 %52
  %54 = load float, float* %53, align 4
  %55 = fmul float %50, %54
  %56 = fsub float %45, %55
  %57 = fpext float %56 to double
  store double %57, double* %9, align 8
  %58 = load double, double* %9, align 8
  %59 = fcmp ogt double %58, 0.000000e+00
  br i1 %59, label %60, label %96

60:                                               ; preds = %36
  %61 = load i32, i32* %3, align 4
  %62 = sext i32 %61 to i64
  %63 = getelementptr inbounds [100 x float], [100 x float]* %5, i64 0, i64 %62
  %64 = load float, float* %63, align 4
  %65 = fneg float %64
  %66 = fpext float %65 to double
  %67 = load double, double* %9, align 8
  %68 = call double @sqrt(double %67) #3
  %69 = fadd double %66, %68
  %70 = load i32, i32* %3, align 4
  %71 = sext i32 %70 to i64
  %72 = getelementptr inbounds [100 x float], [100 x float]* %4, i64 0, i64 %71
  %73 = load float, float* %72, align 4
  %74 = fmul float 2.000000e+00, %73
  %75 = fpext float %74 to double
  %76 = fdiv double %69, %75
  store double %76, double* %7, align 8
  %77 = load i32, i32* %3, align 4
  %78 = sext i32 %77 to i64
  %79 = getelementptr inbounds [100 x float], [100 x float]* %5, i64 0, i64 %78
  %80 = load float, float* %79, align 4
  %81 = fneg float %80
  %82 = fpext float %81 to double
  %83 = load double, double* %9, align 8
  %84 = call double @sqrt(double %83) #3
  %85 = fsub double %82, %84
  %86 = load i32, i32* %3, align 4
  %87 = sext i32 %86 to i64
  %88 = getelementptr inbounds [100 x float], [100 x float]* %4, i64 0, i64 %87
  %89 = load float, float* %88, align 4
  %90 = fmul float 2.000000e+00, %89
  %91 = fpext float %90 to double
  %92 = fdiv double %85, %91
  store double %92, double* %8, align 8
  %93 = load double, double* %7, align 8
  %94 = load double, double* %8, align 8
  %95 = call i32 (i8*, ...) @printf(i8* getelementptr inbounds ([19 x i8], [19 x i8]* @.str.2, i64 0, i64 0), double %93, double %94)
  br label %147

96:                                               ; preds = %36
  %97 = load double, double* %9, align 8
  %98 = fcmp oeq double %97, 0.000000e+00
  br i1 %98, label %99, label %114

99:                                               ; preds = %96
  %100 = load i32, i32* %3, align 4
  %101 = sext i32 %100 to i64
  %102 = getelementptr inbounds [100 x float], [100 x float]* %5, i64 0, i64 %101
  %103 = load float, float* %102, align 4
  %104 = fneg float %103
  %105 = load i32, i32* %3, align 4
  %106 = sext i32 %105 to i64
  %107 = getelementptr inbounds [100 x float], [100 x float]* %4, i64 0, i64 %106
  %108 = load float, float* %107, align 4
  %109 = fmul float 2.000000e+00, %108
  %110 = fdiv float %104, %109
  %111 = fpext float %110 to double
  store double %111, double* %7, align 8
  %112 = load double, double* %7, align 8
  %113 = call i32 (i8*, ...) @printf(i8* getelementptr inbounds ([13 x i8], [13 x i8]* @.str.3, i64 0, i64 0), double %112)
  br label %146

114:                                              ; preds = %96
  %115 = load double, double* %9, align 8
  %116 = fcmp olt double %115, 0.000000e+00
  br i1 %116, label %117, label %145

117:                                              ; preds = %114
  %118 = load i32, i32* %3, align 4
  %119 = sext i32 %118 to i64
  %120 = getelementptr inbounds [100 x float], [100 x float]* %5, i64 0, i64 %119
  %121 = load float, float* %120, align 4
  %122 = fneg float %121
  %123 = load i32, i32* %3, align 4
  %124 = sext i32 %123 to i64
  %125 = getelementptr inbounds [100 x float], [100 x float]* %4, i64 0, i64 %124
  %126 = load float, float* %125, align 4
  %127 = fmul float 2.000000e+00, %126
  %128 = fdiv float %122, %127
  %129 = fpext float %128 to double
  store double %129, double* %10, align 8
  %130 = load double, double* %9, align 8
  %131 = fneg double %130
  %132 = call double @sqrt(double %131) #3
  %133 = load i32, i32* %3, align 4
  %134 = sext i32 %133 to i64
  %135 = getelementptr inbounds [100 x float], [100 x float]* %4, i64 0, i64 %134
  %136 = load float, float* %135, align 4
  %137 = fmul float 2.000000e+00, %136
  %138 = fpext float %137 to double
  %139 = fdiv double %132, %138
  store double %139, double* %11, align 8
  %140 = load double, double* %10, align 8
  %141 = load double, double* %11, align 8
  %142 = load double, double* %10, align 8
  %143 = load double, double* %11, align 8
  %144 = call i32 (i8*, ...) @printf(i8* getelementptr inbounds ([33 x i8], [33 x i8]* @.str.4, i64 0, i64 0), double %140, double %141, double %142, double %143)
  br label %145

145:                                              ; preds = %117, %114
  br label %146

146:                                              ; preds = %145, %99
  br label %147

147:                                              ; preds = %146, %60
  br label %148

148:                                              ; preds = %147
  %149 = load i32, i32* %3, align 4
  %150 = add nsw i32 %149, 1
  store i32 %150, i32* %3, align 4
  br label %32

151:                                              ; preds = %32
  ret i32 0
}

declare dso_local i32 @__isoc99_scanf(i8*, ...) #1

; Function Attrs: nounwind
declare dso_local double @sqrt(double) #2

declare dso_local i32 @printf(i8*, ...) #1


!llvm.module.flags = !{!0}
!llvm.ident = !{!1}

!0 = !{i32 1, !"wchar_size", i32 4}
!1 = !{!"clang version 10.0.0-4ubuntu1 "}
