; ModuleID = 'source-C-CXX/26/1388.c'
source_filename = "source-C-CXX/26/1388.c"
target datalayout = "e-m:e-p270:32:32-p271:32:32-p272:64:64-i64:64-f80:128-n8:16:32:64-S128"
target triple = "x86_64-pc-linux-gnu"

@.str = private unnamed_addr constant [3 x i8] c"%d\00", align 1
@.str.1 = private unnamed_addr constant [7 x i8] c"%f%f%f\00", align 1
@.str.2 = private unnamed_addr constant [19 x i8] c"x1=%.5lf;x2=%.5lf\0A\00", align 1
@.str.3 = private unnamed_addr constant [13 x i8] c"x1=x2=%.5lf\0A\00", align 1
@.str.4 = private unnamed_addr constant [33 x i8] c"x1=%.5lf+%.5lfi;x2=%.5lf-%.5lfi\0A\00", align 1

; Function Attrs: nofree nounwind sspstrong uwtable
define dso_local i32 @main() local_unnamed_addr #0 {
  %1 = alloca i32, align 4
  %2 = alloca [100 x float], align 16
  %3 = alloca [100 x float], align 16
  %4 = alloca [100 x float], align 16
  %5 = bitcast i32* %1 to i8*
  call void @llvm.lifetime.start.p0i8(i64 4, i8* nonnull %5) #4
  %6 = call i32 (i8*, ...) @__isoc99_scanf(i8* getelementptr inbounds ([3 x i8], [3 x i8]* @.str, i64 0, i64 0), i32* nonnull %1)
  %7 = bitcast [100 x float]* %2 to i8*
  call void @llvm.lifetime.start.p0i8(i64 400, i8* nonnull %7) #4
  %8 = bitcast [100 x float]* %3 to i8*
  call void @llvm.lifetime.start.p0i8(i64 400, i8* nonnull %8) #4
  %9 = bitcast [100 x float]* %4 to i8*
  call void @llvm.lifetime.start.p0i8(i64 400, i8* nonnull %9) #4
  %10 = load i32, i32* %1, align 4, !tbaa !5
  %11 = icmp sgt i32 %10, 0
  br i1 %11, label %14, label %84

12:                                               ; preds = %14
  %13 = icmp sgt i32 %21, 0
  br i1 %13, label %24, label %84

14:                                               ; preds = %0, %14
  %15 = phi i64 [ %20, %14 ], [ 0, %0 ]
  %16 = getelementptr inbounds [100 x float], [100 x float]* %2, i64 0, i64 %15
  %17 = getelementptr inbounds [100 x float], [100 x float]* %3, i64 0, i64 %15
  %18 = getelementptr inbounds [100 x float], [100 x float]* %4, i64 0, i64 %15
  %19 = call i32 (i8*, ...) @__isoc99_scanf(i8* getelementptr inbounds ([7 x i8], [7 x i8]* @.str.1, i64 0, i64 0), float* nonnull %16, float* nonnull %17, float* nonnull %18)
  %20 = add nuw nsw i64 %15, 1
  %21 = load i32, i32* %1, align 4, !tbaa !5
  %22 = sext i32 %21 to i64
  %23 = icmp slt i64 %20, %22
  br i1 %23, label %14, label %12, !llvm.loop !9

24:                                               ; preds = %12, %79
  %25 = phi i64 [ %80, %79 ], [ 0, %12 ]
  %26 = getelementptr inbounds [100 x float], [100 x float]* %3, i64 0, i64 %25
  %27 = load float, float* %26, align 4, !tbaa !11
  %28 = fmul float %27, %27
  %29 = getelementptr inbounds [100 x float], [100 x float]* %2, i64 0, i64 %25
  %30 = load float, float* %29, align 4, !tbaa !11
  %31 = fmul float %30, 4.000000e+00
  %32 = getelementptr inbounds [100 x float], [100 x float]* %4, i64 0, i64 %25
  %33 = load float, float* %32, align 4, !tbaa !11
  %34 = fmul float %31, %33
  %35 = fsub float %28, %34
  %36 = fpext float %35 to double
  %37 = fcmp ogt float %35, 0.000000e+00
  br i1 %37, label %38, label %57

38:                                               ; preds = %24
  %39 = fneg float %27
  %40 = fpext float %39 to double
  %41 = call double @sqrt(double %36) #4
  %42 = fadd double %41, %40
  %43 = load float, float* %29, align 4, !tbaa !11
  %44 = fmul float %43, 2.000000e+00
  %45 = fpext float %44 to double
  %46 = fdiv double %42, %45
  %47 = load float, float* %26, align 4, !tbaa !11
  %48 = fneg float %47
  %49 = fpext float %48 to double
  %50 = call double @sqrt(double %36) #4
  %51 = fsub double %49, %50
  %52 = load float, float* %29, align 4, !tbaa !11
  %53 = fmul float %52, 2.000000e+00
  %54 = fpext float %53 to double
  %55 = fdiv double %51, %54
  %56 = call i32 (i8*, ...) @printf(i8* nonnull dereferenceable(1) getelementptr inbounds ([19 x i8], [19 x i8]* @.str.2, i64 0, i64 0), double %46, double %55)
  br label %79

57:                                               ; preds = %24
  %58 = fcmp oeq float %35, 0.000000e+00
  br i1 %58, label %59, label %65

59:                                               ; preds = %57
  %60 = fneg float %27
  %61 = fmul float %30, 2.000000e+00
  %62 = fdiv float %60, %61
  %63 = fpext float %62 to double
  %64 = call i32 (i8*, ...) @printf(i8* nonnull dereferenceable(1) getelementptr inbounds ([13 x i8], [13 x i8]* @.str.3, i64 0, i64 0), double %63)
  br label %79

65:                                               ; preds = %57
  %66 = fcmp olt float %35, 0.000000e+00
  br i1 %66, label %67, label %79

67:                                               ; preds = %65
  %68 = fneg float %27
  %69 = fmul float %30, 2.000000e+00
  %70 = fdiv float %68, %69
  %71 = fpext float %70 to double
  %72 = fneg double %36
  %73 = call double @sqrt(double %72) #4
  %74 = load float, float* %29, align 4, !tbaa !11
  %75 = fmul float %74, 2.000000e+00
  %76 = fpext float %75 to double
  %77 = fdiv double %73, %76
  %78 = call i32 (i8*, ...) @printf(i8* nonnull dereferenceable(1) getelementptr inbounds ([33 x i8], [33 x i8]* @.str.4, i64 0, i64 0), double %71, double %77, double %71, double %77)
  br label %79

79:                                               ; preds = %38, %65, %67, %59
  %80 = add nuw nsw i64 %25, 1
  %81 = load i32, i32* %1, align 4, !tbaa !5
  %82 = sext i32 %81 to i64
  %83 = icmp slt i64 %80, %82
  br i1 %83, label %24, label %84, !llvm.loop !13

84:                                               ; preds = %79, %0, %12
  call void @llvm.lifetime.end.p0i8(i64 400, i8* nonnull %9) #4
  call void @llvm.lifetime.end.p0i8(i64 400, i8* nonnull %8) #4
  call void @llvm.lifetime.end.p0i8(i64 400, i8* nonnull %7) #4
  call void @llvm.lifetime.end.p0i8(i64 4, i8* nonnull %5) #4
  ret i32 0
}

; Function Attrs: argmemonly mustprogress nofree nosync nounwind willreturn
declare void @llvm.lifetime.start.p0i8(i64 immarg, i8* nocapture) #1

; Function Attrs: nofree nounwind
declare noundef i32 @__isoc99_scanf(i8* nocapture noundef readonly, ...) local_unnamed_addr #2

; Function Attrs: mustprogress nofree nounwind willreturn
declare double @sqrt(double) local_unnamed_addr #3

; Function Attrs: nofree nounwind
declare noundef i32 @printf(i8* nocapture noundef readonly, ...) local_unnamed_addr #2

; Function Attrs: argmemonly mustprogress nofree nosync nounwind willreturn
declare void @llvm.lifetime.end.p0i8(i64 immarg, i8* nocapture) #1


!llvm.module.flags = !{!0, !1, !2, !3}
!llvm.ident = !{!4}

!0 = !{i32 1, !"wchar_size", i32 4}
!1 = !{i32 7, !"PIC Level", i32 2}
!2 = !{i32 7, !"PIE Level", i32 2}
!3 = !{i32 7, !"uwtable", i32 1}
!4 = !{!"clang version 13.0.0"}
!5 = !{!6, !6, i64 0}
!6 = !{!"int", !7, i64 0}
!7 = !{!"omnipotent char", !8, i64 0}
!8 = !{!"Simple C/C++ TBAA"}
!9 = distinct !{!9, !10}
!10 = !{!"llvm.loop.mustprogress"}
!11 = !{!12, !12, i64 0}
!12 = !{!"float", !7, i64 0}
!13 = distinct !{!13, !10}
